target datalayout = "e-m:e-p270:32:32-p271:32:32-p272:64:64-i64:64-i128:128-f80:128-n8:16:32:64-S128"
target triple = "x86_64-pc-linux-gnu"

%union.PJ_COORD = type { [4 x double] }

; Function Attrs: mustprogress nounwind uwtable
define void @proj_coord(ptr dead_on_unwind noalias writable sret(%union.PJ_COORD) align 8 %0, double noundef %1, double noundef %2, double noundef %3, double noundef %4) #0 {
  %6 = alloca double, align 8
  %7 = alloca double, align 8
  %8 = alloca double, align 8
  %9 = alloca double, align 8
  store double %1, ptr %6, align 8
  store double %2, ptr %7, align 8
  store double %3, ptr %8, align 8
  store double %4, ptr %9, align 8
  %10 = load double, ptr %6, align 8
  %11 = getelementptr inbounds [4 x double], ptr %0, i64 0, i64 0
  store double %10, ptr %11, align 8
  %12 = load double, ptr %7, align 8
  %13 = getelementptr inbounds [4 x double], ptr %0, i64 0, i64 1
  store double %12, ptr %13, align 8
  %14 = load double, ptr %8, align 8
  %15 = getelementptr inbounds [4 x double], ptr %0, i64 0, i64 2
  store double %14, ptr %15, align 8
  %16 = load double, ptr %9, align 8
  %17 = getelementptr inbounds [4 x double], ptr %0, i64 0, i64 3
  store double %16, ptr %17, align 8
  ret void
}