; Function Attrs: mustprogress nofree norecurse nosync nounwind willreturn memory(argmem: write) uwtable
define void @proj_coord(ptr dead_on_unwind noalias nocapture writable writeonly sret(%union.PJ_COORD) align 8 %0, double noundef %1, double noundef %2, double noundef %3, double noundef %4) local_unnamed_addr #0 {
  store double %1, ptr %0, align 8
  %6 = getelementptr inbounds i8, ptr %0, i64 8
  store double %2, ptr %6, align 8
  %7 = getelementptr inbounds i8, ptr %0, i64 16
  store double %3, ptr %7, align 8
  %8 = getelementptr inbounds i8, ptr %0, i64 24
  store double %4, ptr %8, align 8
  ret void
}